; ModuleID = 'source-C-CXX/15/1190.c'
source_filename = "source-C-CXX/15/1190.c"
target datalayout = "e-m:e-p270:32:32-p271:32:32-p272:64:64-i64:64-f80:128-n8:16:32:64-S128"
target triple = "x86_64-pc-linux-gnu"

@.str = private unnamed_addr constant [3 x i8] c"%d\00", align 1
@.str.1 = private unnamed_addr constant [11 x i8] c"%d%d%d%d%d\00", align 1
@.str.2 = private unnamed_addr constant [9 x i8] c"%d%d%d%d\00", align 1
@.str.3 = private unnamed_addr constant [7 x i8] c"%d%d%d\00", align 1
@.str.4 = private unnamed_addr constant [5 x i8] c"%d%d\00", align 1

; Function Attrs: nofree nounwind sspstrong uwtable
define dso_local i32 @main() local_unnamed_addr #0 {
  %1 = alloca i32, align 4
  %2 = bitcast i32* %1 to i8*
  call void @llvm.lifetime.start.p0i8(i64 4, i8* nonnull %2) #3
  %3 = call i32 (i8*, ...) @__isoc99_scanf(i8* getelementptr inbounds ([3 x i8], [3 x i8]* @.str, i64 0, i64 0), i32* nonnull %1)
  %4 = load i32, i32* %1, align 4, !tbaa !5
  %5 = icmp eq i32 %4, 10000
  br i1 %5, label %6, label %8

6:                                                ; preds = %0
  %7 = call i32 (i8*, ...) @printf(i8* nonnull dereferenceable(1) getelementptr inbounds ([11 x i8], [11 x i8]* @.str.1, i64 0, i64 0), i32 0, i32 0, i32 0, i32 0, i32 1)
  br label %47

8:                                                ; preds = %0
  %9 = icmp sgt i32 %4, 999
  br i1 %9, label %10, label %23

10:                                               ; preds = %8
  %11 = urem i32 %4, 1000
  %12 = trunc i32 %11 to i16
  %13 = urem i16 %12, 100
  %14 = trunc i16 %13 to i8
  %15 = urem i8 %14, 10
  %16 = zext i8 %15 to i32
  %17 = udiv i8 %14, 10
  %18 = zext i8 %17 to i32
  %19 = udiv i16 %12, 100
  %20 = zext i16 %19 to i32
  %21 = udiv i32 %4, 1000
  %22 = call i32 (i8*, ...) @printf(i8* nonnull dereferenceable(1) getelementptr inbounds ([9 x i8], [9 x i8]* @.str.2, i64 0, i64 0), i32 %16, i32 %18, i32 %20, i32 %21)
  br label %47

23:                                               ; preds = %8
  %24 = icmp sgt i32 %4, 99
  br i1 %24, label %25, label %36

25:                                               ; preds = %23
  %26 = trunc i32 %4 to i16
  %27 = urem i16 %26, 100
  %28 = trunc i16 %27 to i8
  %29 = urem i8 %28, 10
  %30 = zext i8 %29 to i32
  %31 = udiv i8 %28, 10
  %32 = zext i8 %31 to i32
  %33 = udiv i16 %26, 100
  %34 = zext i16 %33 to i32
  %35 = call i32 (i8*, ...) @printf(i8* nonnull dereferenceable(1) getelementptr inbounds ([7 x i8], [7 x i8]* @.str.3, i64 0, i64 0), i32 %30, i32 %32, i32 %34)
  br label %47

36:                                               ; preds = %23
  %37 = icmp sgt i32 %4, 9
  br i1 %37, label %38, label %45

38:                                               ; preds = %36
  %39 = trunc i32 %4 to i8
  %40 = urem i8 %39, 10
  %41 = zext i8 %40 to i32
  %42 = udiv i8 %39, 10
  %43 = zext i8 %42 to i32
  %44 = call i32 (i8*, ...) @printf(i8* nonnull dereferenceable(1) getelementptr inbounds ([5 x i8], [5 x i8]* @.str.4, i64 0, i64 0), i32 %41, i32 %43)
  br label %47

45:                                               ; preds = %36
  %46 = call i32 (i8*, ...) @printf(i8* nonnull dereferenceable(1) getelementptr inbounds ([3 x i8], [3 x i8]* @.str, i64 0, i64 0), i32 %4)
  br label %47

47:                                               ; preds = %10, %38, %45, %25, %6
  call void @llvm.lifetime.end.p0i8(i64 4, i8* nonnull %2) #3
  ret i32 0
}

; Function Attrs: argmemonly mustprogress nofree nosync nounwind willreturn
declare void @llvm.lifetime.start.p0i8(i64 immarg, i8* nocapture) #1

; Function Attrs: nofree nounwind
declare noundef i32 @__isoc99_scanf(i8* nocapture noundef readonly, ...) local_unnamed_addr #2

; Function Attrs: nofree nounwind
declare noundef i32 @printf(i8* nocapture noundef readonly, ...) local_unnamed_addr #2

; Function Attrs: argmemonly mustprogress nofree nosync nounwind willreturn
declare void @llvm.lifetime.end.p0i8(i64 immarg, i8* nocapture) #1


!llvm.module.flags = !{!0, !1, !2, !3}
!llvm.ident = !{!4}

!0 = !{i32 1, !"wchar_size", i32 4}
!1 = !{i32 7, !"PIC Level", i32 2}
!2 = !{i32 7, !"PIE Level", i32 2}
!3 = !{i32 7, !"uwtable", i32 1}
!4 = !{!"clang version 13.0.0"}
!5 = !{!6, !6, i64 0}
!6 = !{!"int", !7, i64 0}
!7 = !{!"omnipotent char", !8, i64 0}
!8 = !{!"Simple C/C++ TBAA"}
